; ModuleID = '31/995.c'
source_filename = "31/995.c"
target datalayout = "e-m:e-p270:32:32-p271:32:32-p272:64:64-i64:64-f80:128-n8:16:32:64-S128"
target triple = "x86_64-pc-linux-gnu"

%struct.student = type { [50 x i8], %struct.student* }

@.str = private unnamed_addr constant [4 x i8] c"end\00", align 1
@.str.1 = private unnamed_addr constant [2 x i8] c"0\00", align 1
@.str.2 = private unnamed_addr constant [4 x i8] c"%s\0A\00", align 1

; Function Attrs: noinline nounwind uwtable
define dso_local i32 @main() #0 {
  %1 = alloca i32, align 4
  %2 = alloca %struct.student, align 8
  %3 = alloca %struct.student*, align 8
  store i32 0, i32* %1, align 4
  %4 = call %struct.student* @Create()
  store %struct.student* %4, %struct.student** %3, align 8
  %5 = getelementptr inbounds %struct.student, %struct.student* %2, i32 0, i32 0
  %6 = getelementptr inbounds [50 x i8], [50 x i8]* %5, i64 0, i64 0
  %7 = call i32 (i8*, ...) bitcast (i32 (...)* @gets to i32 (i8*, ...)*)(i8* %6)
  br label %8

8:                                                ; preds = %13, %0
  %9 = getelementptr inbounds %struct.student, %struct.student* %2, i32 0, i32 0
  %10 = getelementptr inbounds [50 x i8], [50 x i8]* %9, i64 0, i64 0
  %11 = call i32 @strcmp(i8* %10, i8* getelementptr inbounds ([4 x i8], [4 x i8]* @.str, i64 0, i64 0)) #4
  %12 = icmp ne i32 %11, 0
  br i1 %12, label %13, label %18

13:                                               ; preds = %8
  %14 = load %struct.student*, %struct.student** %3, align 8
  call void @Insert(%struct.student* %14, %struct.student* %2)
  %15 = getelementptr inbounds %struct.student, %struct.student* %2, i32 0, i32 0
  %16 = getelementptr inbounds [50 x i8], [50 x i8]* %15, i64 0, i64 0
  %17 = call i32 (i8*, ...) bitcast (i32 (...)* @gets to i32 (i8*, ...)*)(i8* %16)
  br label %8

18:                                               ; preds = %8
  %19 = load %struct.student*, %struct.student** %3, align 8
  call void @Print(%struct.student* %19)
  ret i32 0
}

declare dso_local i32 @gets(...) #1

; Function Attrs: nounwind readonly
declare dso_local i32 @strcmp(i8*, i8*) #2

; Function Attrs: noinline nounwind uwtable
define dso_local void @Insert(%struct.student* %0, %struct.student* %1) #0 {
  %3 = alloca %struct.student*, align 8
  %4 = alloca %struct.student*, align 8
  %5 = alloca %struct.student*, align 8
  %6 = alloca %struct.student*, align 8
  store %struct.student* %0, %struct.student** %3, align 8
  store %struct.student* %1, %struct.student** %4, align 8
  %7 = load %struct.student*, %struct.student** %3, align 8
  store %struct.student* %7, %struct.student** %5, align 8
  br label %8

8:                                                ; preds = %13, %2
  %9 = load %struct.student*, %struct.student** %5, align 8
  %10 = getelementptr inbounds %struct.student, %struct.student* %9, i32 0, i32 1
  %11 = load %struct.student*, %struct.student** %10, align 8
  %12 = icmp ne %struct.student* %11, null
  br i1 %12, label %13, label %17

13:                                               ; preds = %8
  %14 = load %struct.student*, %struct.student** %5, align 8
  %15 = getelementptr inbounds %struct.student, %struct.student* %14, i32 0, i32 1
  %16 = load %struct.student*, %struct.student** %15, align 8
  store %struct.student* %16, %struct.student** %5, align 8
  br label %8

17:                                               ; preds = %8
  %18 = call noalias i8* @malloc(i64 64) #5
  %19 = bitcast i8* %18 to %struct.student*
  store %struct.student* %19, %struct.student** %6, align 8
  %20 = load %struct.student*, %struct.student** %6, align 8
  %21 = load %struct.student*, %struct.student** %5, align 8
  %22 = getelementptr inbounds %struct.student, %struct.student* %21, i32 0, i32 1
  store %struct.student* %20, %struct.student** %22, align 8
  %23 = load %struct.student*, %struct.student** %6, align 8
  %24 = getelementptr inbounds %struct.student, %struct.student* %23, i32 0, i32 0
  %25 = getelementptr inbounds [50 x i8], [50 x i8]* %24, i64 0, i64 0
  %26 = load %struct.student*, %struct.student** %4, align 8
  %27 = getelementptr inbounds %struct.student, %struct.student* %26, i32 0, i32 0
  %28 = getelementptr inbounds [50 x i8], [50 x i8]* %27, i64 0, i64 0
  %29 = call i8* @strcpy(i8* %25, i8* %28) #5
  %30 = load %struct.student*, %struct.student** %6, align 8
  %31 = getelementptr inbounds %struct.student, %struct.student* %30, i32 0, i32 1
  store %struct.student* null, %struct.student** %31, align 8
  ret void
}

; Function Attrs: noinline nounwind uwtable
define dso_local void @Print(%struct.student* %0) #0 {
  %2 = alloca %struct.student*, align 8
  store %struct.student* %0, %struct.student** %2, align 8
  %3 = load %struct.student*, %struct.student** %2, align 8
  %4 = getelementptr inbounds %struct.student, %struct.student* %3, i32 0, i32 1
  %5 = load %struct.student*, %struct.student** %4, align 8
  %6 = icmp ne %struct.student* %5, null
  br i1 %6, label %7, label %11

7:                                                ; preds = %1
  %8 = load %struct.student*, %struct.student** %2, align 8
  %9 = getelementptr inbounds %struct.student, %struct.student* %8, i32 0, i32 1
  %10 = load %struct.student*, %struct.student** %9, align 8
  call void @Print(%struct.student* %10)
  br label %11

11:                                               ; preds = %7, %1
  %12 = load %struct.student*, %struct.student** %2, align 8
  %13 = getelementptr inbounds %struct.student, %struct.student* %12, i32 0, i32 0
  %14 = getelementptr inbounds [50 x i8], [50 x i8]* %13, i64 0, i64 0
  %15 = call i32 @strcmp(i8* %14, i8* getelementptr inbounds ([2 x i8], [2 x i8]* @.str.1, i64 0, i64 0)) #4
  %16 = icmp ne i32 %15, 0
  br i1 %16, label %17, label %22

17:                                               ; preds = %11
  %18 = load %struct.student*, %struct.student** %2, align 8
  %19 = getelementptr inbounds %struct.student, %struct.student* %18, i32 0, i32 0
  %20 = getelementptr inbounds [50 x i8], [50 x i8]* %19, i64 0, i64 0
  %21 = call i32 (i8*, ...) @printf(i8* getelementptr inbounds ([4 x i8], [4 x i8]* @.str.2, i64 0, i64 0), i8* %20)
  br label %22

22:                                               ; preds = %17, %11
  ret void
}

; Function Attrs: noinline nounwind uwtable
define dso_local %struct.student* @Create() #0 {
  %1 = alloca %struct.student*, align 8
  %2 = call noalias i8* @malloc(i64 64) #5
  %3 = bitcast i8* %2 to %struct.student*
  store %struct.student* %3, %struct.student** %1, align 8
  %4 = load %struct.student*, %struct.student** %1, align 8
  %5 = getelementptr inbounds %struct.student, %struct.student* %4, i32 0, i32 0
  %6 = getelementptr inbounds [50 x i8], [50 x i8]* %5, i64 0, i64 0
  %7 = call i8* @strcpy(i8* %6, i8* getelementptr inbounds ([2 x i8], [2 x i8]* @.str.1, i64 0, i64 0)) #5
  %8 = load %struct.student*, %struct.student** %1, align 8
  %9 = getelementptr inbounds %struct.student, %struct.student* %8, i32 0, i32 1
  store %struct.student* null, %struct.student** %9, align 8
  %10 = load %struct.student*, %struct.student** %1, align 8
  ret %struct.student* %10
}

; Function Attrs: nounwind
declare dso_local noalias i8* @malloc(i64) #3

; Function Attrs: nounwind
declare dso_local i8* @strcpy(i8*, i8*) #3

declare dso_local i32 @printf(i8*, ...) #1


!llvm.module.flags = !{!0}
!llvm.ident = !{!1}

!0 = !{i32 1, !"wchar_size", i32 4}
!1 = !{!"clang version 10.0.0-4ubuntu1 "}
